; Function Attrs: mustprogress uwtable
define void @_ZN27NumericValueChooserDelegateC2EiiP7QObject(ptr noundef nonnull align 8 dereferenceable(64) %0, i32 noundef %1, i32 noundef %2, ptr noundef %3) unnamed_addr #0 align 2 {
  tail call void @_ZN19QStyledItemDelegateC2EP7QObject(ptr noundef nonnull align 8 dereferenceable(16) %0, ptr noundef %3)
  store ptr getelementptr inbounds ({ [26 x ptr] }, ptr @_ZTV27NumericValueChooserDelegate, i64 0, i32 0, i64 2), ptr %0, align 8
  %5 = getelementptr inbounds i8, ptr %0, i64 32
  tail call void @llvm.memset.p0.i64(ptr noundef nonnull align 8 dereferenceable(24) %5, i8 0, i64 24, i1 false)
  %6 = getelementptr inbounds i8, ptr %0, i64 56
  store i64 2, ptr %6, align 8
  %7 = getelementptr inbounds i8, ptr %0, i64 16
  store i32 %1, ptr %7, align 8
  %8 = getelementptr inbounds i8, ptr %0, i64 20
  store i32 %2, ptr %8, align 4
  %9 = getelementptr inbounds i8, ptr %0, i64 24
  store i32 %1, ptr %9, align 8
  ret void
}